; Function Attrs: mustprogress nofree norecurse nosync nounwind willreturn memory(read, inaccessiblemem: none) uwtable
define dso_local noundef float @_ZN22btDeformableBodySolver13kineticEnergyEv(ptr noundef nonnull readonly align 8 captures(none) dereferenceable(609) %0) local_unnamed_addr #14 align 2 {
  %2 = getelementptr inbounds nuw i8, ptr %0, i64 156
  %3 = load i32, ptr %2, align 4, !tbaa !96
  %4 = icmp sgt i32 %3, 0
  br i1 %4, label %.lr.ph20, label %._crit_edge21

.lr.ph20:                                         ; preds = %1
  %5 = getelementptr inbounds nuw i8, ptr %0, i64 168
  %6 = load ptr, ptr %5, align 8, !tbaa !95
  %7 = getelementptr inbounds nuw i8, ptr %0, i64 40
  %8 = load ptr, ptr %7, align 8
  %wide.trip.count27 = zext nneg i32 %3 to i64
  br label %9

._crit_edge21:                                    ; preds = %._crit_edge, %1
  %.0.lcssa = phi float [ 0.000000e+00, %1 ], [ %.1.lcssa, %._crit_edge ]
  ret float %.0.lcssa

9:                                                ; preds = %.lr.ph20, %._crit_edge
  %indvars.iv24 = phi i64 [ 0, %.lr.ph20 ], [ %indvars.iv.next25, %._crit_edge ]
  %.018 = phi float [ 0.000000e+00, %.lr.ph20 ], [ %.1.lcssa, %._crit_edge ]
  %10 = getelementptr inbounds nuw ptr, ptr %6, i64 %indvars.iv24
  %11 = load ptr, ptr %10, align 8, !tbaa !149
  %12 = getelementptr inbounds nuw i8, ptr %11, i64 932
  %13 = load i32, ptr %12, align 4, !tbaa !151
  %14 = icmp sgt i32 %13, 0
  br i1 %14, label %.lr.ph, label %._crit_edge

.lr.ph:                                           ; preds = %9
  %15 = getelementptr inbounds nuw i8, ptr %11, i64 944
  %16 = load ptr, ptr %15, align 8, !tbaa !156
  %wide.trip.count = zext nneg i32 %13 to i64
  br label %17

._crit_edge:                                      ; preds = %42, %9
  %.1.lcssa = phi float [ %.018, %9 ], [ %.2, %42 ]
  %indvars.iv.next25 = add nuw nsw i64 %indvars.iv24, 1
  %exitcond28.not = icmp eq i64 %indvars.iv.next25, %wide.trip.count27
  br i1 %exitcond28.not, label %._crit_edge21, label %9, !llvm.loop !166

17:                                               ; preds = %.lr.ph, %42
  %indvars.iv = phi i64 [ 0, %.lr.ph ], [ %indvars.iv.next, %42 ]
  %.116 = phi float [ %.018, %.lr.ph ], [ %.2, %42 ]
  %18 = getelementptr inbounds nuw %"struct.btSoftBody::Node", ptr %16, i64 %indvars.iv
  %19 = getelementptr inbounds nuw i8, ptr %18, i64 112
  %20 = load float, ptr %19, align 8, !tbaa !157
  %21 = fcmp ogt float %20, 0.000000e+00
  br i1 %21, label %22, label %42

22:                                               ; preds = %17
  %23 = getelementptr inbounds nuw i8, ptr %18, i64 136
  %24 = load i32, ptr %23, align 8, !tbaa !167
  %25 = sext i32 %24 to i64
  %26 = getelementptr inbounds %class.btVector3, ptr %8, i64 %25
  %27 = load float, ptr %26, align 4, !tbaa !45
  %28 = getelementptr inbounds nuw i8, ptr %26, i64 4
  %29 = load float, ptr %28, align 4, !tbaa !45
  %30 = fmul float %29, %29
  %31 = tail call float @llvm.fmuladd.f32(float %27, float %27, float %30)
  %32 = getelementptr inbounds nuw i8, ptr %26, i64 8
  %33 = load float, ptr %32, align 4, !tbaa !45
  %34 = tail call noundef float @llvm.fmuladd.f32(float %33, float %33, float %31)
  %35 = fpext float %34 to double
  %36 = fmul double %35, 5.000000e-01
  %37 = fpext float %20 to double
  %38 = fdiv double %36, %37
  %39 = fpext float %.116 to double
  %40 = fadd double %38, %39
  %41 = fptrunc double %40 to float
  br label %42

42:                                               ; preds = %22, %17
  %.2 = phi float [ %41, %22 ], [ %.116, %17 ]
  %indvars.iv.next = add nuw nsw i64 %indvars.iv, 1
  %exitcond.not = icmp eq i64 %indvars.iv.next, %wide.trip.count
  br i1 %exitcond.not, label %._crit_edge, label %17, !llvm.loop !168
}